target datalayout = "e-m:e-p270:32:32-p271:32:32-p272:64:64-i64:64-i128:128-f80:128-n8:16:32:64-S128"
target triple = "x86_64-pc-linux-gnu"

%struct.mbedtls_mpi = type { ptr, i16, i16 }

; Function Attrs: inlinehint nounwind uwtable
define internal i64 @mpi_sint_abs(i64 noundef %0) #2 {
  %2 = alloca i64, align 8
  %3 = alloca i64, align 8
  store i64 %0, ptr %3, align 8, !tbaa !15
  %4 = load i64, ptr %3, align 8, !tbaa !15
  %5 = icmp sge i64 %4, 0
  br i1 %5, label %6, label %8

6:                                                ; preds = %1
  %7 = load i64, ptr %3, align 8, !tbaa !15
  store i64 %7, ptr %2, align 8
  br label %11

8:                                                ; preds = %1
  %9 = load i64, ptr %3, align 8, !tbaa !15
  %10 = sub i64 0, %9
  store i64 %10, ptr %2, align 8
  br label %11

11:                                               ; preds = %8, %6
  %12 = load i64, ptr %2, align 8
  ret i64 %12
}

; Function Attrs: nounwind uwtable
define hidden i32 @mbedtls_mpi_grow(ptr noundef %0, i64 noundef %1) #0 {
  %3 = alloca i32, align 4
  %4 = alloca ptr, align 8
  %5 = alloca i64, align 8
  %6 = alloca ptr, align 8
  %7 = alloca i32, align 4
  store ptr %0, ptr %4, align 8, !tbaa !3
  store i64 %1, ptr %5, align 8, !tbaa !15
  call void @llvm.lifetime.start.p0(i64 8, ptr %6) #9
  %8 = load i64, ptr %5, align 8, !tbaa !15
  %9 = icmp ugt i64 %8, 10000
  br i1 %9, label %10, label %11

10:                                               ; preds = %2
  store i32 -16, ptr %3, align 4
  store i32 1, ptr %7, align 4
  br label %55

11:                                               ; preds = %2
  %12 = load ptr, ptr %4, align 8, !tbaa !3
  %13 = getelementptr inbounds nuw %struct.mbedtls_mpi, ptr %12, i32 0, i32 2
  %14 = load i16, ptr %13, align 2, !tbaa !10
  %15 = zext i16 %14 to i64
  %16 = load i64, ptr %5, align 8, !tbaa !15
  %17 = icmp ult i64 %15, %16
  br i1 %17, label %18, label %54

18:                                               ; preds = %11
  %19 = load i64, ptr %5, align 8, !tbaa !15
  %20 = call noalias ptr @calloc(i64 noundef %19, i64 noundef 8) #10
  store ptr %20, ptr %6, align 8, !tbaa !25
  %21 = icmp eq ptr %20, null
  br i1 %21, label %22, label %23

22:                                               ; preds = %18
  store i32 -16, ptr %3, align 4
  store i32 1, ptr %7, align 4
  br label %55

23:                                               ; preds = %18
  %24 = load ptr, ptr %4, align 8, !tbaa !3
  %25 = getelementptr inbounds nuw %struct.mbedtls_mpi, ptr %24, i32 0, i32 0
  %26 = load ptr, ptr %25, align 8, !tbaa !17
  %27 = icmp ne ptr %26, null
  br i1 %27, label %28, label %46

28:                                               ; preds = %23
  %29 = load ptr, ptr %6, align 8, !tbaa !25
  %30 = load ptr, ptr %4, align 8, !tbaa !3
  %31 = getelementptr inbounds nuw %struct.mbedtls_mpi, ptr %30, i32 0, i32 0
  %32 = load ptr, ptr %31, align 8, !tbaa !17
  %33 = load ptr, ptr %4, align 8, !tbaa !3
  %34 = getelementptr inbounds nuw %struct.mbedtls_mpi, ptr %33, i32 0, i32 2
  %35 = load i16, ptr %34, align 2, !tbaa !10
  %36 = zext i16 %35 to i64
  %37 = mul i64 %36, 8
  call void @llvm.memcpy.p0.p0.i64(ptr align 8 %29, ptr align 8 %32, i64 %37, i1 false)
  %38 = load ptr, ptr %4, align 8, !tbaa !3
  %39 = getelementptr inbounds nuw %struct.mbedtls_mpi, ptr %38, i32 0, i32 0
  %40 = load ptr, ptr %39, align 8, !tbaa !17
  %41 = load ptr, ptr %4, align 8, !tbaa !3
  %42 = getelementptr inbounds nuw %struct.mbedtls_mpi, ptr %41, i32 0, i32 2
  %43 = load i16, ptr %42, align 2, !tbaa !10
  %44 = zext i16 %43 to i64
  %45 = mul i64 8, %44
  call void @mbedtls_zeroize_and_free(ptr noundef %40, i64 noundef %45)
  br label %46

46:                                               ; preds = %28, %23
  %47 = load i64, ptr %5, align 8, !tbaa !15
  %48 = trunc i64 %47 to i16
  %49 = load ptr, ptr %4, align 8, !tbaa !3
  %50 = getelementptr inbounds nuw %struct.mbedtls_mpi, ptr %49, i32 0, i32 2
  store i16 %48, ptr %50, align 2, !tbaa !10
  %51 = load ptr, ptr %6, align 8, !tbaa !25
  %52 = load ptr, ptr %4, align 8, !tbaa !3
  %53 = getelementptr inbounds nuw %struct.mbedtls_mpi, ptr %52, i32 0, i32 0
  store ptr %51, ptr %53, align 8, !tbaa !17
  br label %54

54:                                               ; preds = %46, %11
  store i32 0, ptr %3, align 4
  store i32 1, ptr %7, align 4
  br label %55

55:                                               ; preds = %54, %22, %10
  call void @llvm.lifetime.end.p0(i64 8, ptr %6) #9
  %56 = load i32, ptr %3, align 4
  ret i32 %56
}

; Function Attrs: nounwind uwtable
define hidden i32 @mbedtls_mpi_lset(ptr noundef %0, i64 noundef %1) #0 {
  %3 = alloca ptr, align 8
  %4 = alloca i64, align 8
  %5 = alloca i32, align 4
  store ptr %0, ptr %3, align 8, !tbaa !3
  store i64 %1, ptr %4, align 8, !tbaa !15
  call void @llvm.lifetime.start.p0(i64 4, ptr %5) #9
  store i32 -110, ptr %5, align 4, !tbaa !19
  br label %6

6:                                                ; preds = %2
  %7 = load ptr, ptr %3, align 8, !tbaa !3
  %8 = call i32 @mbedtls_mpi_grow(ptr noundef %7, i64 noundef 1)
  store i32 %8, ptr %5, align 4, !tbaa !19
  %9 = icmp ne i32 %8, 0
  br i1 %9, label %10, label %11

10:                                               ; preds = %6
  br label %35

11:                                               ; preds = %6
  br label %12

12:                                               ; preds = %11
  br label %13

13:                                               ; preds = %12
  %14 = load ptr, ptr %3, align 8, !tbaa !3
  %15 = getelementptr inbounds nuw %struct.mbedtls_mpi, ptr %14, i32 0, i32 0
  %16 = load ptr, ptr %15, align 8, !tbaa !17
  %17 = load ptr, ptr %3, align 8, !tbaa !3
  %18 = getelementptr inbounds nuw %struct.mbedtls_mpi, ptr %17, i32 0, i32 2
  %19 = load i16, ptr %18, align 2, !tbaa !10
  %20 = zext i16 %19 to i64
  %21 = mul i64 %20, 8
  call void @llvm.memset.p0.i64(ptr align 8 %16, i8 0, i64 %21, i1 false)
  %22 = load i64, ptr %4, align 8, !tbaa !15
  %23 = call i64 @mpi_sint_abs(i64 noundef %22)
  %24 = load ptr, ptr %3, align 8, !tbaa !3
  %25 = getelementptr inbounds nuw %struct.mbedtls_mpi, ptr %24, i32 0, i32 0
  %26 = load ptr, ptr %25, align 8, !tbaa !17
  %27 = getelementptr inbounds i64, ptr %26, i64 0
  store i64 %23, ptr %27, align 8, !tbaa !15
  %28 = load i64, ptr %4, align 8, !tbaa !15
  %29 = lshr i64 %28, 63
  %30 = mul nsw i64 %29, -2
  %31 = add nsw i64 %30, 1
  %32 = trunc i64 %31 to i16
  %33 = load ptr, ptr %3, align 8, !tbaa !3
  %34 = getelementptr inbounds nuw %struct.mbedtls_mpi, ptr %33, i32 0, i32 1
  store i16 %32, ptr %34, align 8, !tbaa !14
  br label %35

35:                                               ; preds = %13, %10
  %36 = load i32, ptr %5, align 4, !tbaa !19
  call void @llvm.lifetime.end.p0(i64 4, ptr %5) #9
  ret i32 %36
}

; Function Attrs: nounwind uwtable
define hidden i32 @mbedtls_mpi_mul_int(ptr noundef %0, ptr noundef %1, i64 noundef %2) #0 {
  %4 = alloca i32, align 4
  %5 = alloca ptr, align 8
  %6 = alloca ptr, align 8
  %7 = alloca i64, align 8
  %8 = alloca i64, align 8
  %9 = alloca i32, align 4
  %10 = alloca i32, align 4
  store ptr %0, ptr %5, align 8, !tbaa !3
  store ptr %1, ptr %6, align 8, !tbaa !3
  store i64 %2, ptr %7, align 8, !tbaa !15
  call void @llvm.lifetime.start.p0(i64 8, ptr %8) #9
  %11 = load ptr, ptr %6, align 8, !tbaa !3
  %12 = getelementptr inbounds nuw %struct.mbedtls_mpi, ptr %11, i32 0, i32 2
  %13 = load i16, ptr %12, align 2, !tbaa !10
  %14 = zext i16 %13 to i64
  store i64 %14, ptr %8, align 8, !tbaa !15
  br label %15

15:                                               ; preds = %29, %3
  %16 = load i64, ptr %8, align 8, !tbaa !15
  %17 = icmp ugt i64 %16, 0
  br i1 %17, label %18, label %27

18:                                               ; preds = %15
  %19 = load ptr, ptr %6, align 8, !tbaa !3
  %20 = getelementptr inbounds nuw %struct.mbedtls_mpi, ptr %19, i32 0, i32 0
  %21 = load ptr, ptr %20, align 8, !tbaa !17
  %22 = load i64, ptr %8, align 8, !tbaa !15
  %23 = sub i64 %22, 1
  %24 = getelementptr inbounds nuw i64, ptr %21, i64 %23
  %25 = load i64, ptr %24, align 8, !tbaa !15
  %26 = icmp eq i64 %25, 0
  br label %27

27:                                               ; preds = %18, %15
  %28 = phi i1 [ false, %15 ], [ %26, %18 ]
  br i1 %28, label %29, label %32

29:                                               ; preds = %27
  %30 = load i64, ptr %8, align 8, !tbaa !15
  %31 = add i64 %30, -1
  store i64 %31, ptr %8, align 8, !tbaa !15
  br label %15, !llvm.loop !34

32:                                               ; preds = %27
  %33 = load i64, ptr %7, align 8, !tbaa !15
  %34 = icmp eq i64 %33, 0
  br i1 %34, label %38, label %35

35:                                               ; preds = %32
  %36 = load i64, ptr %8, align 8, !tbaa !15
  %37 = icmp eq i64 %36, 0
  br i1 %37, label %38, label %41

38:                                               ; preds = %35, %32
  %39 = load ptr, ptr %5, align 8, !tbaa !3
  %40 = call i32 @mbedtls_mpi_lset(ptr noundef %39, i64 noundef 0)
  store i32 %40, ptr %4, align 4
  store i32 1, ptr %9, align 4
  br label %77

41:                                               ; preds = %35
  call void @llvm.lifetime.start.p0(i64 4, ptr %10) #9
  store i32 -110, ptr %10, align 4, !tbaa !19
  br label %42

42:                                               ; preds = %41
  %43 = load ptr, ptr %5, align 8, !tbaa !3
  %44 = load i64, ptr %8, align 8, !tbaa !15
  %45 = add i64 %44, 1
  %46 = call i32 @mbedtls_mpi_grow(ptr noundef %43, i64 noundef %45)
  store i32 %46, ptr %10, align 4, !tbaa !19
  %47 = icmp ne i32 %46, 0
  br i1 %47, label %48, label %49

48:                                               ; preds = %42
  br label %75

49:                                               ; preds = %42
  br label %50

50:                                               ; preds = %49
  br label %51

51:                                               ; preds = %50
  br label %52

52:                                               ; preds = %51
  %53 = load ptr, ptr %5, align 8, !tbaa !3
  %54 = load ptr, ptr %6, align 8, !tbaa !3
  %55 = call i32 @mbedtls_mpi_copy(ptr noundef %53, ptr noundef %54)
  store i32 %55, ptr %10, align 4, !tbaa !19
  %56 = icmp ne i32 %55, 0
  br i1 %56, label %57, label %58

57:                                               ; preds = %52
  br label %75

58:                                               ; preds = %52
  br label %59

59:                                               ; preds = %58
  br label %60

60:                                               ; preds = %59
  %61 = load ptr, ptr %5, align 8, !tbaa !3
  %62 = getelementptr inbounds nuw %struct.mbedtls_mpi, ptr %61, i32 0, i32 0
  %63 = load ptr, ptr %62, align 8, !tbaa !17
  %64 = load ptr, ptr %5, align 8, !tbaa !3
  %65 = getelementptr inbounds nuw %struct.mbedtls_mpi, ptr %64, i32 0, i32 2
  %66 = load i16, ptr %65, align 2, !tbaa !10
  %67 = zext i16 %66 to i64
  %68 = load ptr, ptr %6, align 8, !tbaa !3
  %69 = getelementptr inbounds nuw %struct.mbedtls_mpi, ptr %68, i32 0, i32 0
  %70 = load ptr, ptr %69, align 8, !tbaa !17
  %71 = load i64, ptr %8, align 8, !tbaa !15
  %72 = load i64, ptr %7, align 8, !tbaa !15
  %73 = sub i64 %72, 1
  %74 = call i64 @mbedtls_mpi_core_mla(ptr noundef %63, i64 noundef %67, ptr noundef %70, i64 noundef %71, i64 noundef %73)
  br label %75

75:                                               ; preds = %60, %57, %48
  %76 = load i32, ptr %10, align 4, !tbaa !19
  store i32 %76, ptr %4, align 4
  store i32 1, ptr %9, align 4
  call void @llvm.lifetime.end.p0(i64 4, ptr %10) #9
  br label %77

77:                                               ; preds = %75, %38
  call void @llvm.lifetime.end.p0(i64 8, ptr %8) #9
  %78 = load i32, ptr %4, align 4
  ret i32 %78
}