; Function Attrs: nounwind uwtable
define hidden range(i32 -16, 1) i32 @mbedtls_mpi_mul_int(ptr noundef %0, ptr noundef %1, i64 noundef %2) local_unnamed_addr #0 {
  %4 = getelementptr inbounds nuw i8, ptr %1, i64 10
  %5 = load i16, ptr %4, align 2, !tbaa !3
  %.not31 = icmp eq i16 %5, 0
  br i1 %.not31, label %.critedge.thread, label %.lr.ph

.lr.ph:                                           ; preds = %3
  %6 = zext i16 %5 to i64
  %7 = load ptr, ptr %1, align 8, !tbaa !12
  %invariant.gep = getelementptr i8, ptr %7, i64 -8
  br label %8

8:                                                ; preds = %.lr.ph, %11
  %.01932 = phi i64 [ %6, %.lr.ph ], [ %12, %11 ]
  %gep = getelementptr i64, ptr %invariant.gep, i64 %.01932
  %9 = load i64, ptr %gep, align 8, !tbaa !17
  %10 = icmp eq i64 %9, 0
  br i1 %10, label %11, label %.critedge

11:                                               ; preds = %8
  %12 = add nsw i64 %.01932, -1
  %.not = icmp eq i64 %12, 0
  br i1 %.not, label %.critedge.thread, label %8, !llvm.loop !27

.critedge:                                        ; preds = %8
  %13 = icmp eq i64 %2, 0
  br i1 %13, label %.critedge.thread, label %31

.critedge.thread:                                 ; preds = %11, %3, %.critedge
  %14 = getelementptr inbounds nuw i8, ptr %0, i64 10
  %15 = load i16, ptr %14, align 2, !tbaa !3
  %16 = icmp eq i16 %15, 0
  br i1 %16, label %19, label %._crit_edge.i

._crit_edge.i:                                    ; preds = %.critedge.thread
  %.pre.i = load ptr, ptr %0, align 8, !tbaa !12
  %17 = zext i16 %15 to i64
  %18 = shl nuw nsw i64 %17, 3
  br label %26

19:                                               ; preds = %.critedge.thread
  %20 = tail call noalias dereferenceable_or_null(8) ptr @calloc(i64 noundef 1, i64 noundef 8) #17
  %21 = icmp eq ptr %20, null
  br i1 %21, label %mbedtls_mpi_lset.exit, label %22

22:                                               ; preds = %19
  %23 = load ptr, ptr %0, align 8, !tbaa !12
  %.not.i.i = icmp eq ptr %23, null
  br i1 %.not.i.i, label %25, label %24

24:                                               ; preds = %22
  tail call void @mbedtls_zeroize_and_free(ptr noundef nonnull %23, i64 noundef 0) #16
  br label %25

25:                                               ; preds = %24, %22
  store i16 1, ptr %14, align 2, !tbaa !3
  store ptr %20, ptr %0, align 8, !tbaa !12
  br label %26

26:                                               ; preds = %25, %._crit_edge.i
  %27 = phi i64 [ %18, %._crit_edge.i ], [ 8, %25 ]
  %28 = phi ptr [ %.pre.i, %._crit_edge.i ], [ %20, %25 ]
  tail call void @llvm.memset.p0.i64(ptr align 8 %28, i8 0, i64 %27, i1 false)
  %29 = load ptr, ptr %0, align 8, !tbaa !12
  store i64 0, ptr %29, align 8, !tbaa !17
  %30 = getelementptr inbounds nuw i8, ptr %0, i64 8
  store i16 1, ptr %30, align 8, !tbaa !10
  br label %mbedtls_mpi_lset.exit

31:                                               ; preds = %.critedge
  %32 = add nuw nsw i64 %.01932, 1
  %33 = icmp ugt i64 %.01932, 9999
  br i1 %33, label %mbedtls_mpi_lset.exit, label %34

34:                                               ; preds = %31
  %35 = getelementptr inbounds nuw i8, ptr %0, i64 10
  %36 = load i16, ptr %35, align 2, !tbaa !3
  %37 = zext i16 %36 to i64
  %.not29 = icmp samesign ult i64 %.01932, %37
  br i1 %.not29, label %47, label %38

38:                                               ; preds = %34
  %39 = tail call noalias ptr @calloc(i64 noundef %32, i64 noundef 8) #17
  %40 = icmp eq ptr %39, null
  br i1 %40, label %mbedtls_mpi_lset.exit, label %41

41:                                               ; preds = %38
  %42 = load ptr, ptr %0, align 8, !tbaa !12
  %.not.i = icmp eq ptr %42, null
  br i1 %.not.i, label %45, label %43

43:                                               ; preds = %41
  %44 = shl nuw nsw i64 %37, 3
  tail call void @llvm.memcpy.p0.p0.i64(ptr nonnull align 8 %39, ptr nonnull align 8 %42, i64 %44, i1 false)
  tail call void @mbedtls_zeroize_and_free(ptr noundef nonnull %42, i64 noundef %44) #16
  br label %45

45:                                               ; preds = %43, %41
  %46 = trunc nuw nsw i64 %32 to i16
  store i16 %46, ptr %35, align 2, !tbaa !3
  store ptr %39, ptr %0, align 8, !tbaa !12
  br label %47

47:                                               ; preds = %45, %34
  %48 = tail call i32 @mbedtls_mpi_copy(ptr noundef nonnull %0, ptr noundef nonnull %1)
  %.not25 = icmp eq i32 %48, 0
  br i1 %.not25, label %49, label %mbedtls_mpi_lset.exit

49:                                               ; preds = %47
  %50 = load ptr, ptr %0, align 8, !tbaa !12
  %51 = load i16, ptr %35, align 2, !tbaa !3
  %52 = zext i16 %51 to i64
  %53 = load ptr, ptr %1, align 8, !tbaa !12
  %54 = add i64 %2, -1
  %55 = tail call i64 @mbedtls_mpi_core_mla(ptr noundef %50, i64 noundef %52, ptr noundef %53, i64 noundef %.01932, i64 noundef %54) #16
  br label %mbedtls_mpi_lset.exit

mbedtls_mpi_lset.exit:                            ; preds = %38, %31, %26, %19, %49, %47
  %.020 = phi i32 [ %48, %47 ], [ 0, %49 ], [ 0, %26 ], [ -16, %19 ], [ -16, %31 ], [ -16, %38 ]
  ret i32 %.020
}